target datalayout = "e-m:e-p270:32:32-p271:32:32-p272:64:64-i64:64-i128:128-f80:128-n8:16:32:64-S128"
target triple = "x86_64-unknown-linux-gnu"

%"class.QuantLib::LmCorrelationModel" = type { ptr, i64, %"class.std::vector" }
%"class.std::vector" = type { %"struct.std::_Vector_base" }
%"struct.std::_Vector_base" = type { %"struct.std::_Vector_base<QuantLib::Parameter, std::allocator<QuantLib::Parameter>>::_Vector_impl" }
%"struct.std::_Vector_base<QuantLib::Parameter, std::allocator<QuantLib::Parameter>>::_Vector_impl" = type { %"struct.std::_Vector_base<QuantLib::Parameter, std::allocator<QuantLib::Parameter>>::_Vector_impl_data" }
%"struct.std::_Vector_base<QuantLib::Parameter, std::allocator<QuantLib::Parameter>>::_Vector_impl_data" = type { ptr, ptr, ptr }

; Function Attrs: mustprogress uwtable
define void @_ZN8QuantLib18LmCorrelationModel9setParamsERKSt6vectorINS_9ParameterESaIS2_EE(ptr noundef nonnull align 8 dereferenceable(40) %this, ptr noundef nonnull align 8 dereferenceable(24) %arguments) #3 align 2 {
entry:
  %this.addr = alloca ptr, align 8
  %arguments.addr = alloca ptr, align 8
  store ptr %this, ptr %this.addr, align 8, !tbaa !3
  store ptr %arguments, ptr %arguments.addr, align 8, !tbaa !3
  %this1 = load ptr, ptr %this.addr, align 8
  %0 = load ptr, ptr %arguments.addr, align 8, !tbaa !3
  %arguments_ = getelementptr inbounds nuw %"class.QuantLib::LmCorrelationModel", ptr %this1, i32 0, i32 2
  %call = call noundef nonnull align 8 dereferenceable(24) ptr @_ZNSt6vectorIN8QuantLib9ParameterESaIS1_EEaSERKS3_(ptr noundef nonnull align 8 dereferenceable(24) %arguments_, ptr noundef nonnull align 8 dereferenceable(24) %0)
  %vtable = load ptr, ptr %this1, align 8, !tbaa !9
  %vfn = getelementptr inbounds ptr, ptr %vtable, i64 8
  %1 = load ptr, ptr %vfn, align 8
  call void %1(ptr noundef nonnull align 8 dereferenceable(40) %this1)
  ret void
}