; Function Attrs: mustprogress uwtable
define void @_ZN8QuantLib18LmCorrelationModel9setParamsERKSt6vectorINS_9ParameterESaIS2_EE(ptr noundef nonnull align 8 dereferenceable(40) %this, ptr noundef nonnull align 8 dereferenceable(24) %arguments) local_unnamed_addr #4 align 2 {
entry:
  %arguments_ = getelementptr inbounds nuw i8, ptr %this, i64 16
  %call = tail call noundef nonnull align 8 dereferenceable(24) ptr @_ZNSt6vectorIN8QuantLib9ParameterESaIS1_EEaSERKS3_(ptr noundef nonnull align 8 dereferenceable(24) %arguments_, ptr noundef nonnull align 8 dereferenceable(24) %arguments)
  %vtable = load ptr, ptr %this, align 8, !tbaa !3
  %vfn = getelementptr inbounds i8, ptr %vtable, i64 64
  %0 = load ptr, ptr %vfn, align 8
  tail call void %0(ptr noundef nonnull align 8 dereferenceable(40) %this)
  ret void
}